
libmath.so.1.0.0:     file format elf64-x86-64


Disassembly of section .init:

0000000000001000 <_init>:
    1000:	f3 0f 1e fa          	endbr64
    1004:	48 83 ec 08          	sub    $0x8,%rsp
    1008:	48 8b 05 c1 2f 00 00 	mov    0x2fc1(%rip),%rax        # 3fd0 <__gmon_start__@Base>
    100f:	48 85 c0             	test   %rax,%rax
    1012:	74 02                	je     1016 <_init+0x16>
    1014:	ff d0                	call   *%rax
    1016:	48 83 c4 08          	add    $0x8,%rsp
    101a:	c3                   	ret

Disassembly of section .text:

0000000000001020 <addNumbers-0xc9>:
    1020:	48 8d 3d e1 2f 00 00 	lea    0x2fe1(%rip),%rdi        # 4008 <__TMC_END__>
    1027:	48 8d 05 da 2f 00 00 	lea    0x2fda(%rip),%rax        # 4008 <__TMC_END__>
    102e:	48 39 f8             	cmp    %rdi,%rax
    1031:	74 15                	je     1048 <_init+0x48>
    1033:	48 8b 05 8e 2f 00 00 	mov    0x2f8e(%rip),%rax        # 3fc8 <_ITM_deregisterTMCloneTable@Base>
    103a:	48 85 c0             	test   %rax,%rax
    103d:	74 09                	je     1048 <_init+0x48>
    103f:	ff e0                	jmp    *%rax
    1041:	0f 1f 80 00 00 00 00 	nopl   0x0(%rax)
    1048:	c3                   	ret
    1049:	0f 1f 80 00 00 00 00 	nopl   0x0(%rax)
    1050:	48 8d 3d b1 2f 00 00 	lea    0x2fb1(%rip),%rdi        # 4008 <__TMC_END__>
    1057:	48 8d 35 aa 2f 00 00 	lea    0x2faa(%rip),%rsi        # 4008 <__TMC_END__>
    105e:	48 29 fe             	sub    %rdi,%rsi
    1061:	48 89 f0             	mov    %rsi,%rax
    1064:	48 c1 ee 3f          	shr    $0x3f,%rsi
    1068:	48 c1 f8 03          	sar    $0x3,%rax
    106c:	48 01 c6             	add    %rax,%rsi
    106f:	48 d1 fe             	sar    $1,%rsi
    1072:	74 14                	je     1088 <_init+0x88>
    1074:	48 8b 05 5d 2f 00 00 	mov    0x2f5d(%rip),%rax        # 3fd8 <_ITM_registerTMCloneTable@Base>
    107b:	48 85 c0             	test   %rax,%rax
    107e:	74 08                	je     1088 <_init+0x88>
    1080:	ff e0                	jmp    *%rax
    1082:	66 0f 1f 44 00 00    	nopw   0x0(%rax,%rax,1)
    1088:	c3                   	ret
    1089:	0f 1f 80 00 00 00 00 	nopl   0x0(%rax)
    1090:	f3 0f 1e fa          	endbr64
    1094:	80 3d 6d 2f 00 00 00 	cmpb   $0x0,0x2f6d(%rip)        # 4008 <__TMC_END__>
    109b:	75 33                	jne    10d0 <_init+0xd0>
    109d:	55                   	push   %rbp
    109e:	48 83 3d 3a 2f 00 00 	cmpq   $0x0,0x2f3a(%rip)        # 3fe0 <__cxa_finalize@GLIBC_2.2.5>
    10a5:	00 
    10a6:	48 89 e5             	mov    %rsp,%rbp
    10a9:	74 0d                	je     10b8 <_init+0xb8>
    10ab:	48 8b 3d 4e 2f 00 00 	mov    0x2f4e(%rip),%rdi        # 4000 <__dso_handle>
    10b2:	ff 15 28 2f 00 00    	call   *0x2f28(%rip)        # 3fe0 <__cxa_finalize@GLIBC_2.2.5>
    10b8:	e8 63 ff ff ff       	call   1020 <_init+0x20>
    10bd:	c6 05 44 2f 00 00 01 	movb   $0x1,0x2f44(%rip)        # 4008 <__TMC_END__>
    10c4:	5d                   	pop    %rbp
    10c5:	c3                   	ret
    10c6:	66 2e 0f 1f 84 00 00 	cs nopw 0x0(%rax,%rax,1)
    10cd:	00 00 00 
    10d0:	c3                   	ret
    10d1:	66 66 2e 0f 1f 84 00 	data16 cs nopw 0x0(%rax,%rax,1)
    10d8:	00 00 00 00 
    10dc:	0f 1f 40 00          	nopl   0x0(%rax)
    10e0:	f3 0f 1e fa          	endbr64
    10e4:	e9 67 ff ff ff       	jmp    1050 <_init+0x50>

00000000000010e9 <addNumbers>:
    10e9:	55                   	push   %rbp
    10ea:	48 89 e5             	mov    %rsp,%rbp
    10ed:	89 7d fc             	mov    %edi,-0x4(%rbp)
    10f0:	89 75 f8             	mov    %esi,-0x8(%rbp)
    10f3:	8b 55 fc             	mov    -0x4(%rbp),%edx
    10f6:	8b 45 f8             	mov    -0x8(%rbp),%eax
    10f9:	01 d0                	add    %edx,%eax
    10fb:	5d                   	pop    %rbp
    10fc:	c3                   	ret

00000000000010fd <subNumbers>:
    10fd:	55                   	push   %rbp
    10fe:	48 89 e5             	mov    %rsp,%rbp
    1101:	89 7d fc             	mov    %edi,-0x4(%rbp)
    1104:	89 75 f8             	mov    %esi,-0x8(%rbp)
    1107:	8b 45 fc             	mov    -0x4(%rbp),%eax
    110a:	2b 45 f8             	sub    -0x8(%rbp),%eax
    110d:	5d                   	pop    %rbp
    110e:	c3                   	ret

Disassembly of section .fini:

0000000000001110 <_fini>:
    1110:	f3 0f 1e fa          	endbr64
    1114:	48 83 ec 08          	sub    $0x8,%rsp
    1118:	48 83 c4 08          	add    $0x8,%rsp
    111c:	c3                   	ret
